; Function Attrs: null_pointer_is_valid sspstrong uwtable
define internal fastcc void @struct_xkb_KeySymMap(ptr noundef %0, ptr noundef captures(none) %1, ptr noundef %2, i32 noundef %3, i32 noundef range(i32 0, 256) %4) unnamed_addr #1 {
  %.not = icmp eq i32 %4, 0
  br i1 %.not, label %._crit_edge, label %.lr.ph

.lr.ph:                                           ; preds = %5, %listOfCard32.exit
  %.036 = phi i32 [ %47, %listOfCard32.exit ], [ 0, %5 ]
  %6 = load i32, ptr @hf_x11_struct_xkb_KeySymMap, align 4
  %7 = load i32, ptr %1, align 4
  %8 = add i32 %7, 6
  %9 = tail call zeroext i16 @tvb_get_uint16(ptr noundef %0, i32 noundef %8, i32 noundef %3)
  %10 = zext i16 %9 to i32
  %11 = shl nuw nsw i32 %10, 2
  %12 = add nuw nsw i32 %11, 8
  %13 = tail call ptr @proto_tree_add_item(ptr noundef %2, i32 noundef %6, ptr noundef %0, i32 noundef %7, i32 noundef %12, i32 noundef 0)
  %14 = load i32, ptr @ett_x11_rectangle, align 4
  %15 = tail call ptr @proto_item_add_subtree(ptr noundef %13, i32 noundef %14)
  %16 = load i32, ptr @hf_x11_struct_xkb_KeySymMap_kt_index, align 4
  %17 = load i32, ptr %1, align 4
  %18 = tail call ptr @proto_tree_add_item(ptr noundef %15, i32 noundef %16, ptr noundef %0, i32 noundef %17, i32 noundef 4, i32 noundef %3)
  %19 = load i32, ptr %1, align 4
  %20 = add i32 %19, 4
  store i32 %20, ptr %1, align 4
  %21 = load i32, ptr @hf_x11_struct_xkb_KeySymMap_groupInfo, align 4
  %22 = tail call ptr @proto_tree_add_item(ptr noundef %15, i32 noundef %21, ptr noundef %0, i32 noundef %20, i32 noundef 1, i32 noundef %3)
  %23 = load i32, ptr %1, align 4
  %24 = add i32 %23, 1
  store i32 %24, ptr %1, align 4
  %25 = load i32, ptr @hf_x11_struct_xkb_KeySymMap_width, align 4
  %26 = tail call ptr @proto_tree_add_item(ptr noundef %15, i32 noundef %25, ptr noundef %0, i32 noundef %24, i32 noundef 1, i32 noundef %3)
  %27 = load i32, ptr %1, align 4
  %28 = add i32 %27, 1
  store i32 %28, ptr %1, align 4
  %29 = tail call zeroext i16 @tvb_get_uint16(ptr noundef %0, i32 noundef %28, i32 noundef %3)
  %30 = zext i16 %29 to i32
  %31 = load i32, ptr @hf_x11_struct_xkb_KeySymMap_nSyms, align 4
  %32 = load i32, ptr %1, align 4
  %33 = tail call ptr @proto_tree_add_item(ptr noundef %15, i32 noundef %31, ptr noundef %0, i32 noundef %32, i32 noundef 2, i32 noundef %3)
  %34 = load i32, ptr %1, align 4
  %35 = add i32 %34, 2
  store i32 %35, ptr %1, align 4
  %36 = load i32, ptr @hf_x11_struct_xkb_KeySymMap_syms, align 4
  %37 = load i32, ptr @hf_x11_struct_xkb_KeySymMap_syms_item, align 4
  %38 = shl nuw nsw i32 %30, 2
  %39 = tail call ptr @proto_tree_add_item(ptr noundef %15, i32 noundef %36, ptr noundef %0, i32 noundef %35, i32 noundef %38, i32 noundef %3)
  %40 = load i32, ptr @ett_x11_list_of_card32, align 4
  %41 = tail call ptr @proto_item_add_subtree(ptr noundef %39, i32 noundef %40)
  %.not13.i = icmp eq i16 %29, 0
  br i1 %.not13.i, label %listOfCard32.exit, label %.lr.ph.preheader.i

.lr.ph.preheader.i:                               ; preds = %.lr.ph
  %.pre.i = load i32, ptr %1, align 4
  br label %.lr.ph.i

.lr.ph.i:                                         ; preds = %.lr.ph.i, %.lr.ph.preheader.i
  %42 = phi i32 [ %46, %.lr.ph.i ], [ %.pre.i, %.lr.ph.preheader.i ]
  %.014.i = phi i32 [ %43, %.lr.ph.i ], [ %30, %.lr.ph.preheader.i ]
  %43 = add nsw i32 %.014.i, -1
  %44 = tail call ptr @proto_tree_add_item(ptr noundef %41, i32 noundef %37, ptr noundef %0, i32 noundef %42, i32 noundef 4, i32 noundef %3)
  %45 = load i32, ptr %1, align 4
  %46 = add i32 %45, 4
  store i32 %46, ptr %1, align 4
  %.not.i = icmp eq i32 %43, 0
  br i1 %.not.i, label %listOfCard32.exit, label %.lr.ph.i, !llvm.loop !44

listOfCard32.exit:                                ; preds = %.lr.ph.i, %.lr.ph
  %47 = add nuw nsw i32 %.036, 1
  %exitcond.not = icmp eq i32 %47, %4
  br i1 %exitcond.not, label %._crit_edge, label %.lr.ph, !llvm.loop !122

._crit_edge:                                      ; preds = %listOfCard32.exit, %5
  ret void
}